target datalayout = "e-m:e-p270:32:32-p271:32:32-p272:64:64-i64:64-i128:128-f80:128-n8:16:32:64-S128"
target triple = "x86_64-pc-linux-gnu"

; Function Attrs: mustprogress uwtable
define signext i8 @ulocbld_copyErrorTo_77(ptr noundef %0, ptr noundef %1) #1 {
  %3 = alloca i8, align 1
  %4 = alloca ptr, align 8
  %5 = alloca ptr, align 8
  store ptr %0, ptr %4, align 8, !tbaa !23
  store ptr %1, ptr %5, align 8, !tbaa !22
  %6 = load ptr, ptr %4, align 8, !tbaa !23
  %7 = icmp eq ptr %6, null
  br i1 %7, label %8, label %10

8:                                                ; preds = %2
  %9 = load ptr, ptr %5, align 8, !tbaa !22
  store i32 1, ptr %9, align 4, !tbaa !15
  store i8 1, ptr %3, align 1
  br label %14

10:                                               ; preds = %2
  %11 = load ptr, ptr %4, align 8, !tbaa !23
  %12 = load ptr, ptr %5, align 8, !tbaa !22
  %13 = call noundef signext i8 @_ZNK6icu_7713LocaleBuilder11copyErrorToER10UErrorCode(ptr noundef nonnull align 8 dereferenceable(48) %11, ptr noundef nonnull align 4 dereferenceable(4) %12)
  store i8 %13, ptr %3, align 1
  br label %14

14:                                               ; preds = %10, %8
  %15 = load i8, ptr %3, align 1
  ret i8 %15
}