; Function Attrs: mustprogress uwtable
define noundef signext i8 @ulocbld_copyErrorTo_77(ptr noundef %0, ptr noundef %1) local_unnamed_addr #1 {
  %3 = icmp eq ptr %0, null
  br i1 %3, label %4, label %5

4:                                                ; preds = %2
  store i32 1, ptr %1, align 4, !tbaa !13
  br label %7

5:                                                ; preds = %2
  %6 = tail call noundef signext i8 @_ZNK6icu_7713LocaleBuilder11copyErrorToER10UErrorCode(ptr noundef nonnull align 8 dereferenceable(48) %0, ptr noundef nonnull align 4 dereferenceable(4) %1)
  br label %7

7:                                                ; preds = %5, %4
  %.0 = phi i8 [ 1, %4 ], [ %6, %5 ]
  ret i8 %.0
}